target datalayout = "e-m:e-p270:32:32-p271:32:32-p272:64:64-i64:64-i128:128-f80:128-n8:16:32:64-S128"
target triple = "x86_64-pc-linux-gnu"

; Function Attrs: nounwind uwtable
define i32 @png_reciprocal2(i32 noundef %0, i32 noundef %1) #0 {
  %3 = alloca i32, align 4
  %4 = alloca i32, align 4
  %5 = alloca i32, align 4
  %6 = alloca double, align 8
  store i32 %0, ptr %4, align 4
  store i32 %1, ptr %5, align 4
  %7 = load i32, ptr %4, align 4
  %8 = icmp ne i32 %7, 0
  br i1 %8, label %9, label %32

9:                                                ; preds = %2
  %10 = load i32, ptr %5, align 4
  %11 = icmp ne i32 %10, 0
  br i1 %11, label %12, label %32

12:                                               ; preds = %9
  %13 = load i32, ptr %4, align 4
  %14 = sitofp i32 %13 to double
  %15 = fdiv double 1.000000e+15, %14
  store double %15, ptr %6, align 8
  %16 = load i32, ptr %5, align 4
  %17 = sitofp i32 %16 to double
  %18 = load double, ptr %6, align 8
  %19 = fdiv double %18, %17
  store double %19, ptr %6, align 8
  %20 = load double, ptr %6, align 8
  %21 = fadd double %20, 5.000000e-01
  %22 = call double @llvm.floor.f64(double %21)
  store double %22, ptr %6, align 8
  %23 = load double, ptr %6, align 8
  %24 = fcmp ole double %23, 0x41DFFFFFFFC00000
  br i1 %24, label %25, label %31

25:                                               ; preds = %12
  %26 = load double, ptr %6, align 8
  %27 = fcmp oge double %26, 0xC1E0000000000000
  br i1 %27, label %28, label %31

28:                                               ; preds = %25
  %29 = load double, ptr %6, align 8
  %30 = fptosi double %29 to i32
  store i32 %30, ptr %3, align 4
  br label %33

31:                                               ; preds = %25, %12
  br label %32

32:                                               ; preds = %31, %9, %2
  store i32 0, ptr %3, align 4
  br label %33

33:                                               ; preds = %32, %28
  %34 = load i32, ptr %3, align 4
  ret i32 %34
}