; Function Attrs: mustprogress nofree norecurse nosync nounwind willreturn memory(none) uwtable
define i32 @png_reciprocal2(i32 noundef %0, i32 noundef %1) local_unnamed_addr #12 {
  %3 = icmp ne i32 %0, 0
  %4 = icmp ne i32 %1, 0
  %or.cond = and i1 %3, %4
  br i1 %or.cond, label %5, label %15

5:                                                ; preds = %2
  %6 = sitofp i32 %0 to double
  %7 = fdiv double 1.000000e+15, %6
  %8 = sitofp i32 %1 to double
  %9 = fdiv double %7, %8
  %10 = fadd double %9, 5.000000e-01
  %11 = tail call double @llvm.floor.f64(double %10)
  %12 = fcmp ole double %11, 0x41DFFFFFFFC00000
  %13 = fcmp oge double %11, 0xC1E0000000000000
  %or.cond3 = and i1 %12, %13
  %14 = fptosi double %11 to i32
  %spec.select = select i1 %or.cond3, i32 %14, i32 0
  br label %15

15:                                               ; preds = %5, %2
  %.0 = phi i32 [ 0, %2 ], [ %spec.select, %5 ]
  ret i32 %.0
}